target datalayout = "e-m:e-p270:32:32-p271:32:32-p272:64:64-i64:64-i128:128-f80:128-n8:16:32:64-S128"
target triple = "x86_64-pc-linux-gnu"

%struct.slabclass_t = type { i32, i32, ptr, i32, i32, ptr, i32 }
%struct._stritem = type { ptr, ptr, ptr, i32, i32, i32, i16, i16, i8, i8, [0 x %union.anon] }
%union.anon = type { i64 }

@slabclass = internal global [64 x %struct.slabclass_t] zeroinitializer, align 16
@power_largest = internal global i32 0, align 4

; Function Attrs: nounwind uwtable
define internal i32 @do_grow_slab_list(i32 noundef %0) #0 {
  %2 = alloca i32, align 4
  %3 = alloca i32, align 4
  %4 = alloca ptr, align 8
  %5 = alloca i64, align 8
  %6 = alloca ptr, align 8
  %7 = alloca i32, align 4
  store i32 %0, ptr %3, align 4, !tbaa !8
  %8 = load i32, ptr %3, align 4, !tbaa !8
  %9 = load i32, ptr @power_largest, align 4, !tbaa !8
  %10 = icmp ugt i32 %8, %9
  br i1 %10, label %11, label %12

11:                                               ; preds = %1
  store i32 0, ptr %2, align 4
  br label %59

12:                                               ; preds = %1
  call void @llvm.lifetime.start.p0(i64 8, ptr %4) #9
  %13 = load i32, ptr %3, align 4, !tbaa !8
  %14 = zext i32 %13 to i64
  %15 = getelementptr inbounds nuw [64 x %struct.slabclass_t], ptr @slabclass, i64 0, i64 %14
  store ptr %15, ptr %4, align 8, !tbaa !25
  %16 = load ptr, ptr %4, align 8, !tbaa !25
  %17 = getelementptr inbounds nuw %struct.slabclass_t, ptr %16, i32 0, i32 4
  %18 = load i32, ptr %17, align 4, !tbaa !27
  %19 = load ptr, ptr %4, align 8, !tbaa !25
  %20 = getelementptr inbounds nuw %struct.slabclass_t, ptr %19, i32 0, i32 6
  %21 = load i32, ptr %20, align 8, !tbaa !32
  %22 = icmp eq i32 %18, %21
  br i1 %22, label %23, label %57

23:                                               ; preds = %12
  call void @llvm.lifetime.start.p0(i64 8, ptr %5) #9
  %24 = load ptr, ptr %4, align 8, !tbaa !25
  %25 = getelementptr inbounds nuw %struct.slabclass_t, ptr %24, i32 0, i32 6
  %26 = load i32, ptr %25, align 8, !tbaa !32
  %27 = icmp ne i32 %26, 0
  br i1 %27, label %28, label %33

28:                                               ; preds = %23
  %29 = load ptr, ptr %4, align 8, !tbaa !25
  %30 = getelementptr inbounds nuw %struct.slabclass_t, ptr %29, i32 0, i32 6
  %31 = load i32, ptr %30, align 8, !tbaa !32
  %32 = mul i32 %31, 2
  br label %34

33:                                               ; preds = %23
  br label %34

34:                                               ; preds = %33, %28
  %35 = phi i32 [ %32, %28 ], [ 16, %33 ]
  %36 = zext i32 %35 to i64
  store i64 %36, ptr %5, align 8, !tbaa !4
  call void @llvm.lifetime.start.p0(i64 8, ptr %6) #9
  %37 = load ptr, ptr %4, align 8, !tbaa !25
  %38 = getelementptr inbounds nuw %struct.slabclass_t, ptr %37, i32 0, i32 5
  %39 = load ptr, ptr %38, align 8, !tbaa !26
  %40 = load i64, ptr %5, align 8, !tbaa !4
  %41 = mul i64 %40, 8
  %42 = call ptr @realloc(ptr noundef %39, i64 noundef %41) #10
  store ptr %42, ptr %6, align 8, !tbaa !25
  %43 = load ptr, ptr %6, align 8, !tbaa !25
  %44 = icmp eq ptr %43, null
  br i1 %44, label %45, label %46

45:                                               ; preds = %34
  store i32 0, ptr %2, align 4
  store i32 1, ptr %7, align 4
  br label %54

46:                                               ; preds = %34
  %47 = load i64, ptr %5, align 8, !tbaa !4
  %48 = trunc i64 %47 to i32
  %49 = load ptr, ptr %4, align 8, !tbaa !25
  %50 = getelementptr inbounds nuw %struct.slabclass_t, ptr %49, i32 0, i32 6
  store i32 %48, ptr %50, align 8, !tbaa !32
  %51 = load ptr, ptr %6, align 8, !tbaa !25
  %52 = load ptr, ptr %4, align 8, !tbaa !25
  %53 = getelementptr inbounds nuw %struct.slabclass_t, ptr %52, i32 0, i32 5
  store ptr %51, ptr %53, align 8, !tbaa !26
  store i32 0, ptr %7, align 4
  br label %54

54:                                               ; preds = %46, %45
  call void @llvm.lifetime.end.p0(i64 8, ptr %6) #9
  call void @llvm.lifetime.end.p0(i64 8, ptr %5) #9
  %55 = load i32, ptr %7, align 4
  switch i32 %55, label %58 [
    i32 0, label %56
  ]

56:                                               ; preds = %54
  br label %57

57:                                               ; preds = %56, %12
  store i32 1, ptr %2, align 4
  store i32 1, ptr %7, align 4
  br label %58

58:                                               ; preds = %57, %54
  call void @llvm.lifetime.end.p0(i64 8, ptr %4) #9
  br label %59

59:                                               ; preds = %58, %11
  %60 = load i32, ptr %2, align 4
  ret i32 %60
}

; Function Attrs: nounwind uwtable
define dso_local i32 @slabs_fixup(ptr noundef %0, i32 noundef %1) #0 {
  %3 = alloca i32, align 4
  %4 = alloca ptr, align 8
  %5 = alloca i32, align 4
  %6 = alloca ptr, align 8
  %7 = alloca ptr, align 8
  %8 = alloca i32, align 4
  %9 = alloca i32, align 4
  store ptr %0, ptr %4, align 8, !tbaa !21
  store i32 %1, ptr %5, align 4, !tbaa !8
  call void @llvm.lifetime.start.p0(i64 8, ptr %6) #9
  call void @llvm.lifetime.start.p0(i64 8, ptr %7) #9
  %10 = load ptr, ptr %4, align 8, !tbaa !21
  store ptr %10, ptr %7, align 8, !tbaa !22
  call void @llvm.lifetime.start.p0(i64 4, ptr %8) #9
  %11 = load ptr, ptr %7, align 8, !tbaa !22
  %12 = getelementptr inbounds nuw %struct._stritem, ptr %11, i32 0, i32 8
  %13 = load i8, ptr %12, align 8, !tbaa !24
  %14 = zext i8 %13 to i32
  %15 = and i32 %14, -193
  store i32 %15, ptr %8, align 4, !tbaa !8
  %16 = load i32, ptr %8, align 4, !tbaa !8
  %17 = icmp eq i32 %16, 0
  br i1 %17, label %18, label %30

18:                                               ; preds = %2
  store ptr @slabclass, ptr %6, align 8, !tbaa !25
  %19 = call i32 @do_grow_slab_list(i32 noundef 0)
  %20 = load ptr, ptr %4, align 8, !tbaa !21
  %21 = load ptr, ptr %6, align 8, !tbaa !25
  %22 = getelementptr inbounds nuw %struct.slabclass_t, ptr %21, i32 0, i32 5
  %23 = load ptr, ptr %22, align 8, !tbaa !26
  %24 = load ptr, ptr %6, align 8, !tbaa !25
  %25 = getelementptr inbounds nuw %struct.slabclass_t, ptr %24, i32 0, i32 4
  %26 = load i32, ptr %25, align 4, !tbaa !27
  %27 = add i32 %26, 1
  store i32 %27, ptr %25, align 4, !tbaa !27
  %28 = zext i32 %26 to i64
  %29 = getelementptr inbounds nuw ptr, ptr %23, i64 %28
  store ptr %20, ptr %29, align 8, !tbaa !25
  store i32 -1, ptr %3, align 4
  store i32 1, ptr %9, align 4
  br label %85

30:                                               ; preds = %2
  %31 = load i32, ptr %8, align 4, !tbaa !8
  %32 = sext i32 %31 to i64
  %33 = getelementptr inbounds [64 x %struct.slabclass_t], ptr @slabclass, i64 0, i64 %32
  store ptr %33, ptr %6, align 8, !tbaa !25
  %34 = load i32, ptr %5, align 4, !tbaa !8
  %35 = icmp eq i32 %34, 0
  br i1 %35, label %36, label %49

36:                                               ; preds = %30
  %37 = load i32, ptr %8, align 4, !tbaa !8
  %38 = call i32 @do_grow_slab_list(i32 noundef %37)
  %39 = load ptr, ptr %4, align 8, !tbaa !21
  %40 = load ptr, ptr %6, align 8, !tbaa !25
  %41 = getelementptr inbounds nuw %struct.slabclass_t, ptr %40, i32 0, i32 5
  %42 = load ptr, ptr %41, align 8, !tbaa !26
  %43 = load ptr, ptr %6, align 8, !tbaa !25
  %44 = getelementptr inbounds nuw %struct.slabclass_t, ptr %43, i32 0, i32 4
  %45 = load i32, ptr %44, align 4, !tbaa !27
  %46 = add i32 %45, 1
  store i32 %46, ptr %44, align 4, !tbaa !27
  %47 = zext i32 %45 to i64
  %48 = getelementptr inbounds nuw ptr, ptr %42, i64 %47
  store ptr %39, ptr %48, align 8, !tbaa !25
  br label %49

49:                                               ; preds = %36, %30
  %50 = load ptr, ptr %7, align 8, !tbaa !22
  %51 = getelementptr inbounds nuw %struct._stritem, ptr %50, i32 0, i32 7
  %52 = load i16, ptr %51, align 2, !tbaa !28
  %53 = zext i16 %52 to i32
  %54 = icmp eq i32 %53, 4
  br i1 %54, label %55, label %81

55:                                               ; preds = %49
  %56 = load ptr, ptr %7, align 8, !tbaa !22
  %57 = getelementptr inbounds nuw %struct._stritem, ptr %56, i32 0, i32 1
  store ptr null, ptr %57, align 8, !tbaa !22
  %58 = load ptr, ptr %6, align 8, !tbaa !25
  %59 = getelementptr inbounds nuw %struct.slabclass_t, ptr %58, i32 0, i32 2
  %60 = load ptr, ptr %59, align 8, !tbaa !30
  %61 = load ptr, ptr %7, align 8, !tbaa !22
  %62 = getelementptr inbounds nuw %struct._stritem, ptr %61, i32 0, i32 0
  store ptr %60, ptr %62, align 8, !tbaa !22
  %63 = load ptr, ptr %7, align 8, !tbaa !22
  %64 = getelementptr inbounds nuw %struct._stritem, ptr %63, i32 0, i32 0
  %65 = load ptr, ptr %64, align 8, !tbaa !22
  %66 = icmp ne ptr %65, null
  br i1 %66, label %67, label %73

67:                                               ; preds = %55
  %68 = load ptr, ptr %7, align 8, !tbaa !22
  %69 = load ptr, ptr %7, align 8, !tbaa !22
  %70 = getelementptr inbounds nuw %struct._stritem, ptr %69, i32 0, i32 0
  %71 = load ptr, ptr %70, align 8, !tbaa !22
  %72 = getelementptr inbounds nuw %struct._stritem, ptr %71, i32 0, i32 1
  store ptr %68, ptr %72, align 8, !tbaa !22
  br label %73

73:                                               ; preds = %67, %55
  %74 = load ptr, ptr %7, align 8, !tbaa !22
  %75 = load ptr, ptr %6, align 8, !tbaa !25
  %76 = getelementptr inbounds nuw %struct.slabclass_t, ptr %75, i32 0, i32 2
  store ptr %74, ptr %76, align 8, !tbaa !30
  %77 = load ptr, ptr %6, align 8, !tbaa !25
  %78 = getelementptr inbounds nuw %struct.slabclass_t, ptr %77, i32 0, i32 3
  %79 = load i32, ptr %78, align 8, !tbaa !31
  %80 = add i32 %79, 1
  store i32 %80, ptr %78, align 8, !tbaa !31
  br label %81

81:                                               ; preds = %73, %49
  %82 = load ptr, ptr %6, align 8, !tbaa !25
  %83 = getelementptr inbounds nuw %struct.slabclass_t, ptr %82, i32 0, i32 0
  %84 = load i32, ptr %83, align 8, !tbaa !17
  store i32 %84, ptr %3, align 4
  store i32 1, ptr %9, align 4
  br label %85

85:                                               ; preds = %81, %18
  call void @llvm.lifetime.end.p0(i64 4, ptr %8) #9
  call void @llvm.lifetime.end.p0(i64 8, ptr %7) #9
  call void @llvm.lifetime.end.p0(i64 8, ptr %6) #9
  %86 = load i32, ptr %3, align 4
  ret i32 %86
}