; Function Attrs: mustprogress nounwind willreturn uwtable
define dso_local i32 @slabs_fixup(ptr noundef %0, i32 noundef %1) local_unnamed_addr #3 {
  %3 = getelementptr inbounds nuw i8, ptr %0, i64 40
  %4 = load i8, ptr %3, align 8, !tbaa !12
  %5 = and i8 %4, 63
  %6 = zext nneg i8 %5 to i32
  %7 = icmp eq i8 %5, 0
  br i1 %7, label %8, label %22

8:                                                ; preds = %2
  %9 = load i32, ptr getelementptr inbounds nuw (i8, ptr @slabclass, i64 20), align 4, !tbaa !13
  %10 = load i32, ptr getelementptr inbounds nuw (i8, ptr @slabclass, i64 32), align 16, !tbaa !14
  %11 = icmp eq i32 %9, %10
  %.pre30 = load ptr, ptr getelementptr inbounds nuw (i8, ptr @slabclass, i64 24), align 8, !tbaa !15
  br i1 %11, label %12, label %do_grow_slab_list.exit

12:                                               ; preds = %8
  %.not.i = icmp eq i32 %9, 0
  %13 = shl i32 %9, 1
  %spec.select.i = select i1 %.not.i, i32 16, i32 %13
  %14 = zext i32 %spec.select.i to i64
  %15 = shl nuw nsw i64 %14, 3
  %16 = tail call ptr @realloc(ptr noundef %.pre30, i64 noundef %15) #20
  %.not18.i = icmp eq ptr %16, null
  br i1 %.not18.i, label %do_grow_slab_list.exit, label %17

17:                                               ; preds = %12
  store i32 %spec.select.i, ptr getelementptr inbounds nuw (i8, ptr @slabclass, i64 32), align 16, !tbaa !14
  store ptr %16, ptr getelementptr inbounds nuw (i8, ptr @slabclass, i64 24), align 8, !tbaa !15
  br label %do_grow_slab_list.exit

do_grow_slab_list.exit:                           ; preds = %8, %12, %17
  %18 = phi ptr [ %.pre30, %8 ], [ %.pre30, %12 ], [ %16, %17 ]
  %19 = add i32 %9, 1
  store i32 %19, ptr getelementptr inbounds nuw (i8, ptr @slabclass, i64 20), align 4, !tbaa !13
  %20 = zext i32 %9 to i64
  %21 = getelementptr inbounds nuw ptr, ptr %18, i64 %20
  store ptr %0, ptr %21, align 8, !tbaa !16
  br label %63

22:                                               ; preds = %2
  %23 = zext nneg i8 %5 to i64
  %24 = getelementptr inbounds nuw [64 x %struct.slabclass_t], ptr @slabclass, i64 0, i64 %23
  %25 = icmp eq i32 %1, 0
  br i1 %25, label %26, label %47

26:                                               ; preds = %22
  %27 = load i32, ptr @power_largest, align 4, !tbaa !17
  %28 = icmp ult i32 %27, %6
  %.phi.trans.insert = getelementptr inbounds nuw i8, ptr %24, i64 20
  %.pre = load i32, ptr %.phi.trans.insert, align 4, !tbaa !13
  br i1 %28, label %do_grow_slab_list.exit29, label %29

29:                                               ; preds = %26
  %30 = getelementptr inbounds nuw i8, ptr %24, i64 32
  %31 = load i32, ptr %30, align 8, !tbaa !14
  %32 = icmp eq i32 %.pre, %31
  br i1 %32, label %33, label %do_grow_slab_list.exit29

33:                                               ; preds = %29
  %.not.i26 = icmp eq i32 %.pre, 0
  %34 = shl i32 %.pre, 1
  %spec.select.i27 = select i1 %.not.i26, i32 16, i32 %34
  %35 = zext i32 %spec.select.i27 to i64
  %36 = getelementptr inbounds nuw i8, ptr %24, i64 24
  %37 = load ptr, ptr %36, align 8, !tbaa !15
  %38 = shl nuw nsw i64 %35, 3
  %39 = tail call ptr @realloc(ptr noundef %37, i64 noundef %38) #20
  %.not18.i28 = icmp eq ptr %39, null
  br i1 %.not18.i28, label %do_grow_slab_list.exit29, label %40

40:                                               ; preds = %33
  store i32 %spec.select.i27, ptr %30, align 8, !tbaa !14
  store ptr %39, ptr %36, align 8, !tbaa !15
  br label %do_grow_slab_list.exit29

do_grow_slab_list.exit29:                         ; preds = %26, %29, %33, %40
  %41 = getelementptr inbounds nuw i8, ptr %24, i64 24
  %42 = load ptr, ptr %41, align 8, !tbaa !15
  %43 = getelementptr inbounds nuw i8, ptr %24, i64 20
  %44 = add i32 %.pre, 1
  store i32 %44, ptr %43, align 4, !tbaa !13
  %45 = zext i32 %.pre to i64
  %46 = getelementptr inbounds nuw ptr, ptr %42, i64 %45
  store ptr %0, ptr %46, align 8, !tbaa !16
  br label %47

47:                                               ; preds = %do_grow_slab_list.exit29, %22
  %48 = getelementptr inbounds nuw i8, ptr %0, i64 38
  %49 = load i16, ptr %48, align 2, !tbaa !18
  %50 = icmp eq i16 %49, 4
  br i1 %50, label %51, label %61

51:                                               ; preds = %47
  %52 = getelementptr inbounds nuw i8, ptr %0, i64 8
  store ptr null, ptr %52, align 8, !tbaa !20
  %53 = getelementptr inbounds nuw i8, ptr %24, i64 8
  %54 = load ptr, ptr %53, align 8, !tbaa !22
  store ptr %54, ptr %0, align 8, !tbaa !20
  %.not = icmp eq ptr %54, null
  br i1 %.not, label %57, label %55

55:                                               ; preds = %51
  %56 = getelementptr inbounds nuw i8, ptr %54, i64 8
  store ptr %0, ptr %56, align 8, !tbaa !20
  br label %57

57:                                               ; preds = %55, %51
  store ptr %0, ptr %53, align 8, !tbaa !22
  %58 = getelementptr inbounds nuw i8, ptr %24, i64 16
  %59 = load i32, ptr %58, align 8, !tbaa !23
  %60 = add i32 %59, 1
  store i32 %60, ptr %58, align 8, !tbaa !23
  br label %61

61:                                               ; preds = %57, %47
  %62 = load i32, ptr %24, align 8, !tbaa !4
  br label %63

63:                                               ; preds = %61, %do_grow_slab_list.exit
  %.0 = phi i32 [ -1, %do_grow_slab_list.exit ], [ %62, %61 ]
  ret i32 %.0
}